target datalayout = "e-m:e-p270:32:32-p271:32:32-p272:64:64-i64:64-i128:128-f80:128-n8:16:32:64-S128"
target triple = "x86_64-pc-linux-gnu"

%class.RangeCoder = type { i32, i32, i32, %"struct.RangeCoder::SUBRANGE", ptr }
%"struct.RangeCoder::SUBRANGE" = type { i32, i32, i32 }
%class.SubAllocator = type { i64, [38 x i8], [128 x i8], i8, ptr, ptr, ptr, [38 x %"struct.SubAllocator::RAR_NODE"], ptr, ptr, ptr, ptr }
%"struct.SubAllocator::RAR_NODE" = type { ptr }
%class.ModelPPM = type <{ i8, [25 x [16 x %struct.RARPPM_SEE2_CONTEXT]], %struct.RARPPM_SEE2_CONTEXT, [3 x i8], ptr, ptr, ptr, ptr, i32, i32, i32, i32, i32, i32, [256 x i8], [256 x i8], [256 x i8], [256 x i8], i8, i8, i8, i8, [128 x [64 x i16]], [4 x i8], %class.RangeCoder, %class.SubAllocator }>
%struct.RARPPM_SEE2_CONTEXT = type { i16, i8, i8 }
%class.Unpack = type { ptr, %class.BitInput, %class.Array, %class.Array, %class.Array.0, [4 x i32], i32, i32, i32, i64, i64, i32, i32, %struct.UnpackBlockHeader, %struct.UnpackBlockTables, i64, ptr, %class.FragmentedWindow, i8, i64, i8, i8, i8, i64, i8, [256 x i16], [256 x i16], [256 x i16], [256 x i16], [256 x i8], [256 x i8], [256 x i8], i32, i32, i32, i32, i32, i32, i32, i32, i32, i32, i32, i32, i32, i32, [4 x %struct.DecodeTable], [1028 x i8], i8, i32, i32, i32, [4 x %struct.AudioVariables], i32, i32, %class.ModelPPM, i32, [404 x i8], i32, i8, i8, i8, %class.RarVM, %class.BitInput, %class.Array.1, %class.Array.1, %class.Array.2, i32, i64, i64 }
%class.Array = type { ptr, i64, i64, i64 }
%class.Array.0 = type { ptr, i64, i64, i64 }
%struct.UnpackBlockHeader = type { i32, i32, i32, i32, i8, i8 }
%struct.UnpackBlockTables = type { %struct.DecodeTable, %struct.DecodeTable, %struct.DecodeTable, %struct.DecodeTable, %struct.DecodeTable }
%struct.DecodeTable = type { i32, [16 x i32], [16 x i32], i32, [1024 x i8], [1024 x i16], [306 x i16] }
%class.FragmentedWindow = type { [32 x ptr], [32 x i64] }
%struct.AudioVariables = type { i32, i32, i32, i32, i32, i32, i32, i32, i32, i32, [11 x i32], i32, i32 }
%class.RarVM = type { ptr, [8 x i32] }
%class.BitInput = type { i32, i32, i8, ptr }
%class.Array.1 = type { ptr, i64, i64, i64 }
%class.Array.2 = type { ptr, i64, i64, i64 }

; Function Attrs: mustprogress nounwind uwtable
define linkonce_odr void @_ZN5ArrayIP14UnpackFilter30E9SoftResetEv(ptr noundef nonnull align 8 dereferenceable(32) %0) #1 comdat align 2 {
  %2 = alloca ptr, align 8
  store ptr %0, ptr %2, align 8
  %3 = load ptr, ptr %2, align 8
  %4 = getelementptr inbounds %class.Array.1, ptr %3, i32 0, i32 1
  store i64 0, ptr %4, align 8
  ret void
}

; Function Attrs: mustprogress nounwind uwtable
define linkonce_odr noundef nonnull align 8 dereferenceable(8) ptr @_ZNK5ArrayIP14UnpackFilter30EixEm(ptr noundef nonnull align 8 dereferenceable(32) %0, i64 noundef %1) #1 comdat align 2 {
  %3 = alloca ptr, align 8
  %4 = alloca i64, align 8
  store ptr %0, ptr %3, align 8
  store i64 %1, ptr %4, align 8
  %5 = load ptr, ptr %3, align 8
  %6 = getelementptr inbounds %class.Array.1, ptr %5, i32 0, i32 0
  %7 = load ptr, ptr %6, align 8
  %8 = load i64, ptr %4, align 8
  %9 = getelementptr inbounds ptr, ptr %7, i64 %8
  ret ptr %9
}

; Function Attrs: mustprogress nounwind uwtable
define linkonce_odr noundef i64 @_ZN5ArrayIP14UnpackFilter30E4SizeEv(ptr noundef nonnull align 8 dereferenceable(32) %0) #1 comdat align 2 {
  %2 = alloca ptr, align 8
  store ptr %0, ptr %2, align 8
  %3 = load ptr, ptr %2, align 8
  %4 = getelementptr inbounds %class.Array.1, ptr %3, i32 0, i32 1
  %5 = load i64, ptr %4, align 8
  ret i64 %5
}

; Function Attrs: mustprogress nounwind uwtable
define linkonce_odr void @_ZN5ArrayIiE9SoftResetEv(ptr noundef nonnull align 8 dereferenceable(32) %0) #1 comdat align 2 {
  %2 = alloca ptr, align 8
  store ptr %0, ptr %2, align 8
  %3 = load ptr, ptr %2, align 8
  %4 = getelementptr inbounds %class.Array.2, ptr %3, i32 0, i32 1
  store i64 0, ptr %4, align 8
  ret void
}

; Function Attrs: mustprogress uwtable
define void @_ZN6Unpack13InitFilters30Eb(ptr noundef nonnull align 8 dereferenceable(59688) %0, i1 noundef zeroext %1) #0 align 2 {
  %3 = alloca ptr, align 8
  %4 = alloca i8, align 1
  %5 = alloca i64, align 8
  %6 = alloca i64, align 8
  store ptr %0, ptr %3, align 8
  %7 = zext i1 %1 to i8
  store i8 %7, ptr %4, align 1
  %8 = load ptr, ptr %3, align 8
  %9 = load i8, ptr %4, align 1
  %10 = trunc i8 %9 to i1
  br i1 %10, label %32, label %11

11:                                               ; preds = %2
  %12 = getelementptr inbounds %class.Unpack, ptr %8, i32 0, i32 66
  call void @_ZN5ArrayIiE9SoftResetEv(ptr noundef nonnull align 8 dereferenceable(32) %12)
  %13 = getelementptr inbounds %class.Unpack, ptr %8, i32 0, i32 67
  store i32 0, ptr %13, align 8
  store i64 0, ptr %5, align 8
  br label %14

14:                                               ; preds = %27, %11
  %15 = load i64, ptr %5, align 8
  %16 = getelementptr inbounds %class.Unpack, ptr %8, i32 0, i32 64
  %17 = call noundef i64 @_ZN5ArrayIP14UnpackFilter30E4SizeEv(ptr noundef nonnull align 8 dereferenceable(32) %16)
  %18 = icmp ult i64 %15, %17
  br i1 %18, label %19, label %30

19:                                               ; preds = %14
  %20 = getelementptr inbounds %class.Unpack, ptr %8, i32 0, i32 64
  %21 = load i64, ptr %5, align 8
  %22 = call noundef nonnull align 8 dereferenceable(8) ptr @_ZNK5ArrayIP14UnpackFilter30EixEm(ptr noundef nonnull align 8 dereferenceable(32) %20, i64 noundef %21)
  %23 = load ptr, ptr %22, align 8
  %24 = icmp eq ptr %23, null
  br i1 %24, label %26, label %25

25:                                               ; preds = %19
  call void @_ZdlPv(ptr noundef %23) #15
  br label %26

26:                                               ; preds = %25, %19
  br label %27

27:                                               ; preds = %26
  %28 = load i64, ptr %5, align 8
  %29 = add i64 %28, 1
  store i64 %29, ptr %5, align 8
  br label %14, !llvm.loop !89

30:                                               ; preds = %14
  %31 = getelementptr inbounds %class.Unpack, ptr %8, i32 0, i32 64
  call void @_ZN5ArrayIP14UnpackFilter30E9SoftResetEv(ptr noundef nonnull align 8 dereferenceable(32) %31)
  br label %32

32:                                               ; preds = %30, %2
  store i64 0, ptr %6, align 8
  br label %33

33:                                               ; preds = %46, %32
  %34 = load i64, ptr %6, align 8
  %35 = getelementptr inbounds %class.Unpack, ptr %8, i32 0, i32 65
  %36 = call noundef i64 @_ZN5ArrayIP14UnpackFilter30E4SizeEv(ptr noundef nonnull align 8 dereferenceable(32) %35)
  %37 = icmp ult i64 %34, %36
  br i1 %37, label %38, label %49

38:                                               ; preds = %33
  %39 = getelementptr inbounds %class.Unpack, ptr %8, i32 0, i32 65
  %40 = load i64, ptr %6, align 8
  %41 = call noundef nonnull align 8 dereferenceable(8) ptr @_ZNK5ArrayIP14UnpackFilter30EixEm(ptr noundef nonnull align 8 dereferenceable(32) %39, i64 noundef %40)
  %42 = load ptr, ptr %41, align 8
  %43 = icmp eq ptr %42, null
  br i1 %43, label %45, label %44

44:                                               ; preds = %38
  call void @_ZdlPv(ptr noundef %42) #15
  br label %45

45:                                               ; preds = %44, %38
  br label %46

46:                                               ; preds = %45
  %47 = load i64, ptr %6, align 8
  %48 = add i64 %47, 1
  store i64 %48, ptr %6, align 8
  br label %33, !llvm.loop !90

49:                                               ; preds = %33
  %50 = getelementptr inbounds %class.Unpack, ptr %8, i32 0, i32 65
  call void @_ZN5ArrayIP14UnpackFilter30E9SoftResetEv(ptr noundef nonnull align 8 dereferenceable(32) %50)
  ret void
}