; Function Attrs: mustprogress nounwind uwtable
define void @_ZN6Unpack13InitFilters30Eb(ptr nocapture noundef nonnull align 8 dereferenceable(59688) %0, i1 noundef zeroext %1) local_unnamed_addr #11 align 2 {
  br i1 %1, label %20, label %3

3:                                                ; preds = %2
  %4 = getelementptr inbounds i8, ptr %0, i64 59640
  store i64 0, ptr %4, align 8
  %5 = getelementptr inbounds i8, ptr %0, i64 59664
  store i32 0, ptr %5, align 8
  %6 = getelementptr inbounds i8, ptr %0, i64 59576
  %7 = load i64, ptr %6, align 8
  %.not = icmp eq i64 %7, 0
  br i1 %.not, label %._crit_edge, label %.lr.ph

.lr.ph:                                           ; preds = %3
  %8 = getelementptr inbounds i8, ptr %0, i64 59568
  br label %9

9:                                                ; preds = %.lr.ph, %16
  %10 = phi i64 [ %7, %.lr.ph ], [ %17, %16 ]
  %.0711 = phi i64 [ 0, %.lr.ph ], [ %18, %16 ]
  %11 = load ptr, ptr %8, align 8
  %12 = getelementptr inbounds ptr, ptr %11, i64 %.0711
  %13 = load ptr, ptr %12, align 8
  %14 = icmp eq ptr %13, null
  br i1 %14, label %16, label %15

15:                                               ; preds = %9
  tail call void @_ZdlPv(ptr noundef nonnull %13) #24
  %.pre = load i64, ptr %6, align 8
  br label %16

16:                                               ; preds = %9, %15
  %17 = phi i64 [ %10, %9 ], [ %.pre, %15 ]
  %18 = add nuw i64 %.0711, 1
  %19 = icmp ult i64 %18, %17
  br i1 %19, label %9, label %._crit_edge, !llvm.loop !47

._crit_edge:                                      ; preds = %16, %3
  store i64 0, ptr %6, align 8
  br label %20

20:                                               ; preds = %._crit_edge, %2
  %21 = getelementptr inbounds i8, ptr %0, i64 59608
  %22 = load i64, ptr %21, align 8
  %.not16 = icmp eq i64 %22, 0
  br i1 %.not16, label %._crit_edge15, label %.lr.ph14

.lr.ph14:                                         ; preds = %20
  %23 = getelementptr inbounds i8, ptr %0, i64 59600
  br label %24

24:                                               ; preds = %.lr.ph14, %31
  %25 = phi i64 [ %22, %.lr.ph14 ], [ %32, %31 ]
  %.012 = phi i64 [ 0, %.lr.ph14 ], [ %33, %31 ]
  %26 = load ptr, ptr %23, align 8
  %27 = getelementptr inbounds ptr, ptr %26, i64 %.012
  %28 = load ptr, ptr %27, align 8
  %29 = icmp eq ptr %28, null
  br i1 %29, label %31, label %30

30:                                               ; preds = %24
  tail call void @_ZdlPv(ptr noundef nonnull %28) #24
  %.pre17 = load i64, ptr %21, align 8
  br label %31

31:                                               ; preds = %24, %30
  %32 = phi i64 [ %25, %24 ], [ %.pre17, %30 ]
  %33 = add nuw i64 %.012, 1
  %34 = icmp ult i64 %33, %32
  br i1 %34, label %24, label %._crit_edge15, !llvm.loop !48

._crit_edge15:                                    ; preds = %31, %20
  store i64 0, ptr %21, align 8
  ret void
}